target datalayout = "e-m:e-p270:32:32-p271:32:32-p272:64:64-i64:64-i128:128-f80:128-n8:16:32:64-S128"
target triple = "x86_64-pc-linux-gnu"

%struct.rb_data_type_struct = type { ptr, %struct.anon.14, ptr, ptr, i64 }
%struct.anon.14 = type { ptr, ptr, ptr, ptr, [1 x ptr] }
%struct.RBasic = type { i64, i64 }
%struct.RData = type { %struct.RBasic, ptr, ptr, ptr }
%struct.rb_proc_t = type { %struct.rb_block, i8 }
%struct.rb_block = type { %union.anon.12, i32 }
%union.anon.12 = type { %struct.rb_captured_block }
%struct.rb_captured_block = type { i64, ptr, %union.anon.13 }
%union.anon.13 = type { ptr }

@proc_data_type = internal constant %struct.rb_data_type_struct { ptr @.str.44, %struct.anon.14 { ptr @proc_mark_and_move, ptr inttoptr (i64 -1 to ptr), ptr @proc_memsize, ptr @proc_mark_and_move, [1 x ptr] zeroinitializer }, ptr null, ptr null, i64 33 }, align 8
@method_data_type = internal constant %struct.rb_data_type_struct { ptr @.str.53, %struct.anon.14 { ptr @bm_mark_and_move, ptr inttoptr (i64 -1 to ptr), ptr null, ptr @bm_mark_and_move, [1 x ptr] zeroinitializer }, ptr null, ptr null, i64 35 }, align 8
@rb_eTypeError = external global i64, align 8
@rb_mRubyVMFrozenCore = external global i64, align 8
@.str.82 = private unnamed_addr constant [28 x i8] c"callable object is expected\00", align 1

; Function Attrs: nounwind sspstrong uwtable
define dso_local i64 @rb_obj_is_method(i64 noundef %0) #0 {
  %2 = alloca i64, align 8
  store i64 %0, ptr %2, align 8, !tbaa !7
  %3 = load i64, ptr %2, align 8, !tbaa !7
  %4 = call i32 @rb_typeddata_is_kind_of(i64 noundef %3, ptr noundef @method_data_type)
  %5 = icmp ne i32 %4, 0
  %6 = select i1 %5, i64 20, i64 0
  ret i64 %6
}

; Function Attrs: nounwind sspstrong uwtable
define dso_local i64 @rb_obj_is_proc(i64 noundef %0) #0 {
  %2 = alloca i64, align 8
  store i64 %0, ptr %2, align 8, !tbaa !7
  %3 = load i64, ptr %2, align 8, !tbaa !7
  %4 = call i32 @rb_typeddata_is_kind_of(i64 noundef %3, ptr noundef @proc_data_type)
  %5 = icmp ne i32 %4, 0
  %6 = select i1 %5, i64 20, i64 0
  ret i64 %6
}

; Function Attrs: nounwind sspstrong uwtable
define internal i64 @method_to_proc(i64 noundef %0) #0 {
  %2 = alloca i64, align 8
  %3 = alloca i64, align 8
  %4 = alloca ptr, align 8
  store i64 %0, ptr %2, align 8, !tbaa !7
  call void @llvm.lifetime.start.p0(i64 8, ptr %3) #25
  call void @llvm.lifetime.start.p0(i64 8, ptr %4) #25
  %5 = load i64, ptr @rb_mRubyVMFrozenCore, align 8, !tbaa !7
  %6 = load i64, ptr %2, align 8, !tbaa !7
  %7 = call i64 @rb_block_call(i64 noundef %5, i64 noundef 3105, i32 noundef 0, ptr noundef null, ptr noundef @bmcall, i64 noundef %6)
  store i64 %7, ptr %3, align 8, !tbaa !7
  %8 = load i64, ptr %3, align 8, !tbaa !7
  %9 = inttoptr i64 %8 to ptr
  %10 = getelementptr inbounds nuw %struct.RData, ptr %9, i32 0, i32 3
  %11 = load ptr, ptr %10, align 8, !tbaa !17
  store ptr %11, ptr %4, align 8, !tbaa !11
  %12 = load ptr, ptr %4, align 8, !tbaa !11
  %13 = getelementptr inbounds nuw %struct.rb_proc_t, ptr %12, i32 0, i32 1
  %14 = load i8, ptr %13, align 8
  %15 = and i8 %14, -2
  %16 = or i8 %15, 1
  store i8 %16, ptr %13, align 8
  %17 = load i64, ptr %3, align 8, !tbaa !7
  call void @llvm.lifetime.end.p0(i64 8, ptr %4) #25
  call void @llvm.lifetime.end.p0(i64 8, ptr %3) #25
  ret i64 %17
}

; Function Attrs: nounwind sspstrong uwtable
define internal i64 @to_callable(i64 noundef %0) #0 {
  %2 = alloca i64, align 8
  %3 = alloca i64, align 8
  %4 = alloca i64, align 8
  %5 = alloca i32, align 4
  store i64 %0, ptr %3, align 8, !tbaa !7
  call void @llvm.lifetime.start.p0(i64 8, ptr %4) #25
  %6 = load i64, ptr %3, align 8, !tbaa !7
  %7 = call i64 @rb_obj_is_proc(i64 noundef %6)
  %8 = icmp ne i64 %7, 0
  br i1 %8, label %9, label %11

9:                                                ; preds = %1
  %10 = load i64, ptr %3, align 8, !tbaa !7
  store i64 %10, ptr %2, align 8
  store i32 1, ptr %5, align 4
  br label %28

11:                                               ; preds = %1
  %12 = load i64, ptr %3, align 8, !tbaa !7
  %13 = call i64 @rb_obj_is_method(i64 noundef %12)
  %14 = icmp ne i64 %13, 0
  br i1 %14, label %15, label %17

15:                                               ; preds = %11
  %16 = load i64, ptr %3, align 8, !tbaa !7
  store i64 %16, ptr %2, align 8
  store i32 1, ptr %5, align 4
  br label %28

17:                                               ; preds = %11
  %18 = load i64, ptr %3, align 8, !tbaa !7
  %19 = call i32 @rb_obj_respond_to(i64 noundef %18, i64 noundef 3457, i32 noundef 1)
  %20 = icmp ne i32 %19, 0
  br i1 %20, label %21, label %23

21:                                               ; preds = %17
  %22 = load i64, ptr %3, align 8, !tbaa !7
  store i64 %22, ptr %2, align 8
  store i32 1, ptr %5, align 4
  br label %28

23:                                               ; preds = %17
  %24 = call i64 @rb_fstring_new(ptr noundef @.str.82, i64 noundef 27)
  store i64 %24, ptr %4, align 8, !tbaa !7
  %25 = load i64, ptr @rb_eTypeError, align 8, !tbaa !7
  %26 = load i64, ptr %4, align 8, !tbaa !7
  %27 = call i64 @rb_exc_new_str(i64 noundef %25, i64 noundef %26)
  call void @rb_exc_raise(i64 noundef %27) #27
  unreachable

28:                                               ; preds = %21, %15, %9
  call void @llvm.lifetime.end.p0(i64 8, ptr %4) #25
  %29 = load i64, ptr %2, align 8
  ret i64 %29
}

; Function Attrs: nounwind sspstrong uwtable
define internal i64 @rb_method_compose_to_right(i64 noundef %0, i64 noundef %1) #0 {
  %3 = alloca i64, align 8
  %4 = alloca i64, align 8
  store i64 %0, ptr %3, align 8, !tbaa !7
  store i64 %1, ptr %4, align 8, !tbaa !7
  %5 = load i64, ptr %4, align 8, !tbaa !7
  %6 = call i64 @to_callable(i64 noundef %5)
  store i64 %6, ptr %4, align 8, !tbaa !7
  %7 = load i64, ptr %3, align 8, !tbaa !7
  %8 = call i64 @method_to_proc(i64 noundef %7)
  store i64 %8, ptr %3, align 8, !tbaa !7
  %9 = load i64, ptr %3, align 8, !tbaa !7
  %10 = load i64, ptr %4, align 8, !tbaa !7
  %11 = call i64 @proc_compose_to_right(i64 noundef %9, i64 noundef %10)
  ret i64 %11
}