; Function Attrs: nounwind sspstrong uwtable
define internal i64 @rb_method_compose_to_right(i64 noundef %0, i64 noundef %1) #0 {
  %3 = tail call i32 @rb_typeddata_is_kind_of(i64 noundef %1, ptr noundef nonnull @proc_data_type) #21
  %.not.i.i = icmp eq i32 %3, 0
  br i1 %.not.i.i, label %4, label %to_callable.exit

4:                                                ; preds = %2
  %5 = tail call i32 @rb_typeddata_is_kind_of(i64 noundef %1, ptr noundef nonnull @method_data_type) #21
  %.not.i10.i = icmp eq i32 %5, 0
  br i1 %.not.i10.i, label %6, label %to_callable.exit

6:                                                ; preds = %4
  %7 = tail call i32 @rb_obj_respond_to(i64 noundef %1, i64 noundef 3457, i32 noundef 1) #21
  %.not9.i = icmp eq i32 %7, 0
  br i1 %.not9.i, label %8, label %to_callable.exit

8:                                                ; preds = %6
  %9 = tail call i64 @rb_fstring_new(ptr noundef nonnull @.str.82, i64 noundef 27) #21
  %10 = load i64, ptr @rb_eTypeError, align 8, !tbaa !36
  %11 = tail call i64 @rb_exc_new_str(i64 noundef %10, i64 noundef %9) #21
  tail call void @rb_exc_raise(i64 noundef %11) #22
  unreachable

to_callable.exit:                                 ; preds = %2, %4, %6
  %12 = load i64, ptr @rb_mRubyVMFrozenCore, align 8, !tbaa !36
  %13 = tail call i64 @rb_block_call(i64 noundef %12, i64 noundef 3105, i32 noundef 0, ptr noundef null, ptr noundef nonnull @bmcall, i64 noundef %0) #21
  %14 = inttoptr i64 %13 to ptr
  %15 = getelementptr inbounds nuw i8, ptr %14, i64 32
  %16 = load ptr, ptr %15, align 8, !tbaa !7
  %17 = getelementptr inbounds nuw i8, ptr %16, i64 32
  %18 = load i8, ptr %17, align 8
  %19 = or i8 %18, 1
  store i8 %19, ptr %17, align 8
  %20 = tail call i64 @proc_compose_to_right(i64 noundef %13, i64 noundef %1)
  ret i64 %20
}